target datalayout = "e-m:e-p270:32:32-p271:32:32-p272:64:64-i64:64-i128:128-f80:128-n8:16:32:64-S128"
target triple = "x86_64-pc-linux-gnu"

%union.pthread_mutex_t = type { %struct.__pthread_mutex_s }
%struct.__pthread_mutex_s = type { i32, i32, i32, i32, i32, i16, i16, %struct.__pthread_internal_list }
%struct.__pthread_internal_list = type { ptr, ptr }
%struct.ccan_list_head = type { %struct.ccan_list_node }
%struct.ccan_list_node = type { ptr, ptr }
%struct.rb_thread_struct = type { %struct.ccan_list_node, i64, ptr, ptr, ptr, ptr, %struct.rb_thread_sched_item, i8, i32, i64, ptr, i64, i64, i8, i8, i32, ptr, i64, i64, i64, i64, %union.pthread_mutex_t, %struct.rb_unblock_callback, i64, ptr, %struct.ccan_list_head, ptr, %union.anon, i32, i64, ptr, i64, i32, i64, ptr, %struct.rb_ext_config }
%struct.rb_thread_sched_item = type { %struct.anon.7, %struct.rb_thread_sched_waiting, i8, i8, ptr, ptr }
%struct.anon.7 = type { %struct.ccan_list_node, %struct.ccan_list_node, %struct.ccan_list_node, %struct.ccan_list_node, %struct.ccan_list_node }
%struct.rb_thread_sched_waiting = type { i32, %struct.anon.8, %struct.ccan_list_node }
%struct.anon.8 = type { i64, i32, i32 }
%struct.rb_unblock_callback = type { ptr, ptr }
%union.anon = type { %struct.anon.9 }
%struct.anon.9 = type { i64, i64, i32 }
%struct.rb_ext_config = type { i8 }
%struct.rb_execution_context_struct = type { ptr, i64, ptr, ptr, i32, i32, ptr, ptr, ptr, i64, i64, i64, ptr, i64, ptr, i64, i64, i8, i8, i64, %struct.anon.11 }
%struct.anon.11 = type { ptr, ptr, i64, [1 x %struct.__jmp_buf_tag] }
%struct.__jmp_buf_tag = type { [8 x i64], i32, %struct.__sigset_t }
%struct.__sigset_t = type { [16 x i64] }
%struct.rb_blocking_region_buffer = type { i32 }

@.str = private unnamed_addr constant [5 x i8] c"lock\00", align 1
@.str.1 = private unnamed_addr constant [19 x i8] c"pthread_mutex_lock\00", align 1
@.str.2 = private unnamed_addr constant [7 x i8] c"unlock\00", align 1
@.str.3 = private unnamed_addr constant [21 x i8] c"pthread_mutex_unlock\00", align 1
@.str.39 = private unnamed_addr constant [12 x i8] c"../thread.c\00", align 1

; Function Attrs: nounwind sspstrong uwtable
define internal void @mutex_debug(ptr noundef %0, ptr noundef %1) #0 {
  %3 = alloca ptr, align 8
  %4 = alloca ptr, align 8
  store ptr %0, ptr %3, align 8, !tbaa !17
  store ptr %1, ptr %4, align 8, !tbaa !14
  ret void
}

; Function Attrs: inlinehint nounwind sspstrong uwtable
define internal ptr @rb_ec_thread_ptr(ptr noundef %0) #1 {
  %2 = alloca ptr, align 8
  store ptr %0, ptr %2, align 8, !tbaa !7
  %3 = load ptr, ptr %2, align 8, !tbaa !7
  %4 = getelementptr inbounds nuw %struct.rb_execution_context_struct, ptr %3, i32 0, i32 7
  %5 = load ptr, ptr %4, align 8, !tbaa !88
  ret ptr %5
}

; Function Attrs: nounwind sspstrong uwtable
define dso_local void @rb_native_mutex_unlock(ptr noundef %0) #0 {
  %2 = alloca ptr, align 8
  %3 = alloca i32, align 4
  store ptr %0, ptr %2, align 8, !tbaa !14
  call void @llvm.lifetime.start.p0(i64 4, ptr %3) #16
  %4 = load ptr, ptr %2, align 8, !tbaa !14
  call void @mutex_debug(ptr noundef @.str.2, ptr noundef %4)
  %5 = load ptr, ptr %2, align 8, !tbaa !14
  %6 = call i32 @pthread_mutex_unlock(ptr noundef %5) #16
  store i32 %6, ptr %3, align 4, !tbaa !15
  %7 = icmp ne i32 %6, 0
  br i1 %7, label %8, label %10

8:                                                ; preds = %1
  %9 = load i32, ptr %3, align 4, !tbaa !15
  call void @rb_bug_errno(ptr noundef @.str.3, i32 noundef %9) #35
  unreachable

10:                                               ; preds = %1
  call void @llvm.lifetime.end.p0(i64 4, ptr %3) #16
  ret void
}

; Function Attrs: nounwind sspstrong uwtable
define dso_local void @rb_native_mutex_lock(ptr noundef %0) #0 {
  %2 = alloca ptr, align 8
  %3 = alloca i32, align 4
  store ptr %0, ptr %2, align 8, !tbaa !14
  call void @llvm.lifetime.start.p0(i64 4, ptr %3) #16
  %4 = load ptr, ptr %2, align 8, !tbaa !14
  call void @mutex_debug(ptr noundef @.str, ptr noundef %4)
  %5 = load ptr, ptr %2, align 8, !tbaa !14
  %6 = call i32 @pthread_mutex_lock(ptr noundef %5) #16
  store i32 %6, ptr %3, align 4, !tbaa !15
  %7 = icmp ne i32 %6, 0
  br i1 %7, label %8, label %10

8:                                                ; preds = %1
  %9 = load i32, ptr %3, align 4, !tbaa !15
  call void @rb_bug_errno(ptr noundef @.str.1, i32 noundef %9) #35
  unreachable

10:                                               ; preds = %1
  call void @llvm.lifetime.end.p0(i64 4, ptr %3) #16
  ret void
}

; Function Attrs: inlinehint nounwind sspstrong uwtable
define internal void @rb_vm_check_ints(ptr noundef %0) #1 {
  %2 = alloca ptr, align 8
  store ptr %0, ptr %2, align 8, !tbaa !7
  %3 = load ptr, ptr %2, align 8, !tbaa !7
  %4 = call zeroext i1 @RUBY_VM_INTERRUPTED_ANY(ptr noundef %3)
  %5 = xor i1 %4, true
  %6 = xor i1 %5, true
  %7 = zext i1 %6 to i32
  %8 = sext i32 %7 to i64
  %9 = call i64 @llvm.expect.i64(i64 %8, i64 0)
  %10 = icmp ne i64 %9, 0
  br i1 %10, label %11, label %15

11:                                               ; preds = %1
  %12 = load ptr, ptr %2, align 8, !tbaa !7
  %13 = call ptr @rb_ec_thread_ptr(ptr noundef %12)
  %14 = call i32 @rb_threadptr_execute_interrupts(ptr noundef %13, i32 noundef 0)
  br label %15

15:                                               ; preds = %11, %1
  ret void
}

; Function Attrs: inlinehint nounwind sspstrong uwtable
define internal zeroext i1 @RUBY_VM_INTERRUPTED_ANY(ptr noundef %0) #1 {
  %2 = alloca ptr, align 8
  store ptr %0, ptr %2, align 8, !tbaa !7
  %3 = load ptr, ptr %2, align 8, !tbaa !7
  %4 = getelementptr inbounds nuw %struct.rb_execution_context_struct, ptr %3, i32 0, i32 4
  %5 = load i32, ptr %4, align 8, !tbaa !76
  %6 = load ptr, ptr %2, align 8, !tbaa !7
  %7 = getelementptr inbounds nuw %struct.rb_execution_context_struct, ptr %6, i32 0, i32 5
  %8 = load i32, ptr %7, align 4, !tbaa !82
  %9 = xor i32 %8, -1
  %10 = and i32 %5, %9
  %11 = icmp ne i32 %10, 0
  ret i1 %11
}

; Function Attrs: nounwind sspstrong uwtable
define internal i32 @unblock_function_set(ptr noundef %0, ptr noundef %1, ptr noundef %2, i32 noundef %3) #0 {
  %5 = alloca i32, align 4
  %6 = alloca ptr, align 8
  %7 = alloca ptr, align 8
  %8 = alloca ptr, align 8
  %9 = alloca i32, align 4
  store ptr %0, ptr %6, align 8, !tbaa !12
  store ptr %1, ptr %7, align 8, !tbaa !14
  store ptr %2, ptr %8, align 8, !tbaa !14
  store i32 %3, ptr %9, align 4, !tbaa !15
  br label %10

10:                                               ; preds = %42, %4
  %11 = load i32, ptr %9, align 4, !tbaa !15
  %12 = icmp ne i32 %11, 0
  br i1 %12, label %13, label %20

13:                                               ; preds = %10
  %14 = load ptr, ptr %6, align 8, !tbaa !12
  %15 = getelementptr inbounds nuw %struct.rb_thread_struct, ptr %14, i32 0, i32 5
  %16 = load ptr, ptr %15, align 8, !tbaa !75
  %17 = call zeroext i1 @RUBY_VM_INTERRUPTED_ANY(ptr noundef %16)
  br i1 %17, label %18, label %19

18:                                               ; preds = %13
  store i32 0, ptr %5, align 4
  br label %55

19:                                               ; preds = %13
  br label %24

20:                                               ; preds = %10
  %21 = load ptr, ptr %6, align 8, !tbaa !12
  %22 = getelementptr inbounds nuw %struct.rb_thread_struct, ptr %21, i32 0, i32 5
  %23 = load ptr, ptr %22, align 8, !tbaa !75
  call void @rb_vm_check_ints(ptr noundef %23)
  br label %24

24:                                               ; preds = %20, %19
  %25 = load ptr, ptr %6, align 8, !tbaa !12
  %26 = getelementptr inbounds nuw %struct.rb_thread_struct, ptr %25, i32 0, i32 21
  call void @rb_native_mutex_lock(ptr noundef %26)
  br label %27

27:                                               ; preds = %24
  %28 = load ptr, ptr %6, align 8, !tbaa !12
  %29 = getelementptr inbounds nuw %struct.rb_thread_struct, ptr %28, i32 0, i32 5
  %30 = load ptr, ptr %29, align 8, !tbaa !75
  %31 = getelementptr inbounds nuw %struct.rb_execution_context_struct, ptr %30, i32 0, i32 17
  %32 = load i8, ptr %31, align 8, !tbaa !278
  %33 = icmp ne i8 %32, 0
  br i1 %33, label %42, label %34

34:                                               ; preds = %27
  %35 = load ptr, ptr %6, align 8, !tbaa !12
  %36 = getelementptr inbounds nuw %struct.rb_thread_struct, ptr %35, i32 0, i32 5
  %37 = load ptr, ptr %36, align 8, !tbaa !75
  %38 = call zeroext i1 @RUBY_VM_INTERRUPTED_ANY(ptr noundef %37)
  br i1 %38, label %39, label %42

39:                                               ; preds = %34
  %40 = load ptr, ptr %6, align 8, !tbaa !12
  %41 = getelementptr inbounds nuw %struct.rb_thread_struct, ptr %40, i32 0, i32 21
  call void @rb_native_mutex_unlock(ptr noundef %41)
  br label %42

42:                                               ; preds = %39, %34, %27
  %43 = phi i1 [ false, %34 ], [ false, %27 ], [ true, %39 ]
  br i1 %43, label %10, label %44, !llvm.loop !510

44:                                               ; preds = %42
  %45 = load ptr, ptr %7, align 8, !tbaa !14
  %46 = load ptr, ptr %6, align 8, !tbaa !12
  %47 = getelementptr inbounds nuw %struct.rb_thread_struct, ptr %46, i32 0, i32 22
  %48 = getelementptr inbounds nuw %struct.rb_unblock_callback, ptr %47, i32 0, i32 0
  store ptr %45, ptr %48, align 8, !tbaa !89
  %49 = load ptr, ptr %8, align 8, !tbaa !14
  %50 = load ptr, ptr %6, align 8, !tbaa !12
  %51 = getelementptr inbounds nuw %struct.rb_thread_struct, ptr %50, i32 0, i32 22
  %52 = getelementptr inbounds nuw %struct.rb_unblock_callback, ptr %51, i32 0, i32 1
  store ptr %49, ptr %52, align 8, !tbaa !90
  %53 = load ptr, ptr %6, align 8, !tbaa !12
  %54 = getelementptr inbounds nuw %struct.rb_thread_struct, ptr %53, i32 0, i32 21
  call void @rb_native_mutex_unlock(ptr noundef %54)
  store i32 1, ptr %5, align 4
  br label %55

55:                                               ; preds = %44, %18
  %56 = load i32, ptr %5, align 4
  ret i32 %56
}

; Function Attrs: inlinehint nounwind sspstrong uwtable
define internal i32 @blocking_region_begin(ptr noundef %0, ptr noundef %1, ptr noundef %2, ptr noundef %3, i32 noundef %4) #1 {
  %6 = alloca i32, align 4
  %7 = alloca ptr, align 8
  %8 = alloca ptr, align 8
  %9 = alloca ptr, align 8
  %10 = alloca ptr, align 8
  %11 = alloca i32, align 4
  store ptr %0, ptr %7, align 8, !tbaa !12
  store ptr %1, ptr %8, align 8, !tbaa !253
  store ptr %2, ptr %9, align 8, !tbaa !14
  store ptr %3, ptr %10, align 8, !tbaa !14
  store i32 %4, ptr %11, align 4, !tbaa !15
  %12 = load ptr, ptr %7, align 8, !tbaa !12
  %13 = getelementptr inbounds nuw %struct.rb_thread_struct, ptr %12, i32 0, i32 13
  %14 = load i8, ptr %13, align 8
  %15 = and i8 %14, 3
  %16 = zext i8 %15 to i32
  %17 = load ptr, ptr %8, align 8, !tbaa !253
  %18 = getelementptr inbounds nuw %struct.rb_blocking_region_buffer, ptr %17, i32 0, i32 0
  store i32 %16, ptr %18, align 4, !tbaa !255
  %19 = load ptr, ptr %7, align 8, !tbaa !12
  %20 = load ptr, ptr %9, align 8, !tbaa !14
  %21 = load ptr, ptr %10, align 8, !tbaa !14
  %22 = load i32, ptr %11, align 4, !tbaa !15
  %23 = call i32 @unblock_function_set(ptr noundef %19, ptr noundef %20, ptr noundef %21, i32 noundef %22)
  %24 = icmp ne i32 %23, 0
  br i1 %24, label %25, label %37

25:                                               ; preds = %5
  %26 = load ptr, ptr %8, align 8, !tbaa !253
  %27 = load ptr, ptr %7, align 8, !tbaa !12
  %28 = getelementptr inbounds nuw %struct.rb_thread_struct, ptr %27, i32 0, i32 16
  store ptr %26, ptr %28, align 8, !tbaa !257
  %29 = load ptr, ptr %7, align 8, !tbaa !12
  %30 = getelementptr inbounds nuw %struct.rb_thread_struct, ptr %29, i32 0, i32 13
  %31 = load i8, ptr %30, align 8
  %32 = and i8 %31, -4
  %33 = or i8 %32, 1
  store i8 %33, ptr %30, align 8
  %34 = load ptr, ptr %7, align 8, !tbaa !12
  %35 = getelementptr inbounds nuw %struct.rb_thread_struct, ptr %34, i32 0, i32 2
  %36 = load ptr, ptr %35, align 8, !tbaa !27
  call void @rb_ractor_blocking_threads_inc(ptr noundef %36, ptr noundef @.str.39, i32 noundef 1499)
  store i32 1, ptr %6, align 4
  br label %38

37:                                               ; preds = %5
  store i32 0, ptr %6, align 4
  br label %38

38:                                               ; preds = %37, %25
  %39 = load i32, ptr %6, align 4
  ret i32 %39
}