; Function Attrs: inlinehint nounwind sspstrong uwtable
define internal fastcc range(i32 0, 2) i32 @blocking_region_begin(ptr noundef %0, ptr noundef nonnull initializes((0, 4)) %1, ptr noundef %2, ptr noundef %3, i32 noundef range(i32 0, 2) %4) unnamed_addr #18 {
  %6 = getelementptr inbounds nuw i8, ptr %0, i64 240
  %7 = load i8, ptr %6, align 8
  %8 = and i8 %7, 3
  %9 = zext nneg i8 %8 to i32
  store i32 %9, ptr %1, align 4, !tbaa !246
  %.not.i = icmp eq i32 %4, 0
  %10 = getelementptr inbounds nuw i8, ptr %0, i64 48
  %11 = getelementptr inbounds nuw i8, ptr %0, i64 288
  br i1 %.not.i, label %rb_native_mutex_unlock.exit.us.i, label %rb_native_mutex_unlock.exit.i

rb_native_mutex_unlock.exit.us.i:                 ; preds = %5, %29
  %12 = load ptr, ptr %10, align 8, !tbaa !74
  %13 = getelementptr i8, ptr %12, i64 32
  %.val2.i.us.i = load i32, ptr %13, align 8, !tbaa !46
  %14 = getelementptr i8, ptr %12, i64 36
  %.val3.i.us.i = load i32, ptr %14, align 4, !tbaa !47
  %15 = xor i32 %.val3.i.us.i, -1
  %16 = and i32 %.val2.i.us.i, %15
  %.not.i.us.i = icmp eq i32 %16, 0
  br i1 %.not.i.us.i, label %rb_vm_check_ints.exit.us.i, label %17, !prof !45

17:                                               ; preds = %rb_native_mutex_unlock.exit.us.i
  %18 = getelementptr i8, ptr %12, i64 48
  %.val.i.us.i = load ptr, ptr %18, align 8, !tbaa !7
  %19 = tail call i32 @rb_threadptr_execute_interrupts(ptr noundef %.val.i.us.i, i32 noundef 0)
  br label %rb_vm_check_ints.exit.us.i

rb_vm_check_ints.exit.us.i:                       ; preds = %17, %rb_native_mutex_unlock.exit.us.i
  %20 = tail call i32 @pthread_mutex_lock(ptr noundef nonnull %11) #17
  %.not.i16.us.i = icmp eq i32 %20, 0
  br i1 %.not.i16.us.i, label %rb_native_mutex_lock.exit.us.i, label %.split29.us.i

rb_native_mutex_lock.exit.us.i:                   ; preds = %rb_vm_check_ints.exit.us.i
  %21 = load ptr, ptr %10, align 8, !tbaa !74
  %22 = getelementptr inbounds nuw i8, ptr %21, i64 128
  %23 = load i8, ptr %22, align 8, !tbaa !248
  %.not12.us.i = icmp eq i8 %23, 0
  br i1 %.not12.us.i, label %24, label %.critedge.i

24:                                               ; preds = %rb_native_mutex_lock.exit.us.i
  %25 = getelementptr i8, ptr %21, i64 32
  %.val.us.i = load i32, ptr %25, align 8, !tbaa !46
  %26 = getelementptr i8, ptr %21, i64 36
  %.val13.us.i = load i32, ptr %26, align 4, !tbaa !47
  %27 = xor i32 %.val13.us.i, -1
  %28 = and i32 %.val.us.i, %27
  %.not21.us.i = icmp eq i32 %28, 0
  br i1 %.not21.us.i, label %.critedge.i, label %29

29:                                               ; preds = %24
  %30 = tail call i32 @pthread_mutex_unlock(ptr noundef nonnull %11) #17
  %.not.i17.us.i = icmp eq i32 %30, 0
  br i1 %.not.i17.us.i, label %rb_native_mutex_unlock.exit.us.i, label %.split32.us.i, !llvm.loop !249

rb_native_mutex_unlock.exit.i:                    ; preds = %5, %45
  %31 = load ptr, ptr %10, align 8, !tbaa !74
  %32 = getelementptr i8, ptr %31, i64 32
  %.val14.i = load i32, ptr %32, align 8, !tbaa !46
  %33 = getelementptr i8, ptr %31, i64 36
  %.val15.i = load i32, ptr %33, align 4, !tbaa !47
  %34 = xor i32 %.val15.i, -1
  %35 = and i32 %.val14.i, %34
  %.not20.i = icmp eq i32 %35, 0
  br i1 %.not20.i, label %rb_vm_check_ints.exit.i, label %unblock_function_set.exit.thread

rb_vm_check_ints.exit.i:                          ; preds = %rb_native_mutex_unlock.exit.i
  %36 = tail call i32 @pthread_mutex_lock(ptr noundef nonnull %11) #17
  %.not.i16.i = icmp eq i32 %36, 0
  br i1 %.not.i16.i, label %rb_native_mutex_lock.exit.i, label %.split29.us.i

.split29.us.i:                                    ; preds = %rb_vm_check_ints.exit.i, %rb_vm_check_ints.exit.us.i
  %.us-phi.i = phi i32 [ %20, %rb_vm_check_ints.exit.us.i ], [ %36, %rb_vm_check_ints.exit.i ]
  tail call void @rb_bug_errno(ptr noundef nonnull @.str.1, i32 noundef %.us-phi.i) #38
  unreachable

rb_native_mutex_lock.exit.i:                      ; preds = %rb_vm_check_ints.exit.i
  %37 = load ptr, ptr %10, align 8, !tbaa !74
  %38 = getelementptr inbounds nuw i8, ptr %37, i64 128
  %39 = load i8, ptr %38, align 8, !tbaa !248
  %.not12.i = icmp eq i8 %39, 0
  br i1 %.not12.i, label %40, label %.critedge.i

40:                                               ; preds = %rb_native_mutex_lock.exit.i
  %41 = getelementptr i8, ptr %37, i64 32
  %.val.i = load i32, ptr %41, align 8, !tbaa !46
  %42 = getelementptr i8, ptr %37, i64 36
  %.val13.i = load i32, ptr %42, align 4, !tbaa !47
  %43 = xor i32 %.val13.i, -1
  %44 = and i32 %.val.i, %43
  %.not21.i = icmp eq i32 %44, 0
  br i1 %.not21.i, label %.critedge.i, label %45

45:                                               ; preds = %40
  %46 = tail call i32 @pthread_mutex_unlock(ptr noundef nonnull %11) #17
  %.not.i17.i = icmp eq i32 %46, 0
  br i1 %.not.i17.i, label %rb_native_mutex_unlock.exit.i, label %.split32.us.i, !llvm.loop !249

.split32.us.i:                                    ; preds = %45, %29
  %.us-phi33.i = phi i32 [ %30, %29 ], [ %46, %45 ]
  tail call void @rb_bug_errno(ptr noundef nonnull @.str.3, i32 noundef %.us-phi33.i) #38
  unreachable

.critedge.i:                                      ; preds = %40, %rb_native_mutex_lock.exit.i, %24, %rb_native_mutex_lock.exit.us.i
  %47 = getelementptr inbounds nuw i8, ptr %0, i64 328
  store ptr %2, ptr %47, align 8, !tbaa !72
  %48 = getelementptr inbounds nuw i8, ptr %0, i64 336
  store ptr %3, ptr %48, align 8, !tbaa !73
  %49 = tail call i32 @pthread_mutex_unlock(ptr noundef nonnull %11) #17
  %.not.i18.i = icmp eq i32 %49, 0
  br i1 %.not.i18.i, label %unblock_function_set.exit, label %50

50:                                               ; preds = %.critedge.i
  tail call void @rb_bug_errno(ptr noundef nonnull @.str.3, i32 noundef %49) #38
  unreachable

unblock_function_set.exit:                        ; preds = %.critedge.i
  %51 = getelementptr inbounds nuw i8, ptr %0, i64 248
  store ptr %1, ptr %51, align 8, !tbaa !250
  %52 = load i8, ptr %6, align 8
  %53 = and i8 %52, -4
  %54 = or disjoint i8 %53, 1
  store i8 %54, ptr %6, align 8
  %55 = getelementptr inbounds nuw i8, ptr %0, i64 24
  %56 = load ptr, ptr %55, align 8, !tbaa !52
  tail call void @rb_ractor_blocking_threads_inc(ptr noundef %56, ptr noundef nonnull @.str.39, i32 noundef 1499) #17
  br label %unblock_function_set.exit.thread

unblock_function_set.exit.thread:                 ; preds = %rb_native_mutex_unlock.exit.i, %unblock_function_set.exit
  %.0 = phi i32 [ 1, %unblock_function_set.exit ], [ 0, %rb_native_mutex_unlock.exit.i ]
  ret i32 %.0
}